; Function Attrs: nounwind sspstrong uwtable
define dso_local zeroext i1 @qemu_semihosting_console_ready() local_unnamed_addr #0 {
entry:
  %call = tail call zeroext i1 @qemu_mutex_iothread_locked() #5
  br i1 %call, label %do.end, label %if.else

if.else:                                          ; preds = %entry
  tail call void @g_assertion_message_expr(ptr noundef null, ptr noundef nonnull @.str, i32 noundef 73, ptr noundef nonnull @__func__.qemu_semihosting_console_ready, ptr noundef nonnull @.str.1) #6
  unreachable

do.end:                                           ; preds = %entry
  %call1 = tail call zeroext i1 @fifo8_is_empty(ptr noundef nonnull getelementptr inbounds nuw (i8, ptr @console, i64 80)) #5
  %lnot = xor i1 %call1, true
  ret i1 %lnot
}